target datalayout = "e-m:e-p270:32:32-p271:32:32-p272:64:64-i64:64-i128:128-f80:128-n8:16:32:64-S128"
target triple = "x86_64-pc-linux-gnu"

; Function Attrs: nounwind uwtable
define hidden void @std_trans(ptr noundef %0, ptr noundef %1, i64 noundef %2, i64 noundef %3) #0 {
  %5 = alloca ptr, align 8
  %6 = alloca ptr, align 8
  %7 = alloca i64, align 8
  %8 = alloca i64, align 8
  %9 = alloca i64, align 8
  %10 = alloca i64, align 8
  %11 = alloca i64, align 8
  %12 = alloca i64, align 8
  store ptr %0, ptr %5, align 8, !tbaa !3
  store ptr %1, ptr %6, align 8, !tbaa !3
  store i64 %2, ptr %7, align 8, !tbaa !8
  store i64 %3, ptr %8, align 8, !tbaa !8
  call void @llvm.lifetime.start.p0(i64 8, ptr %9) #7
  call void @llvm.lifetime.start.p0(i64 8, ptr %10) #7
  call void @llvm.lifetime.start.p0(i64 8, ptr %11) #7
  call void @llvm.lifetime.start.p0(i64 8, ptr %12) #7
  store i64 0, ptr %11, align 8, !tbaa !8
  br label %13

13:                                               ; preds = %43, %4
  %14 = load i64, ptr %11, align 8, !tbaa !8
  %15 = load i64, ptr %7, align 8, !tbaa !8
  %16 = icmp ult i64 %14, %15
  br i1 %16, label %17, label %46

17:                                               ; preds = %13
  %18 = load i64, ptr %11, align 8, !tbaa !8
  %19 = load i64, ptr %8, align 8, !tbaa !8
  %20 = mul i64 %18, %19
  store i64 %20, ptr %10, align 8, !tbaa !8
  %21 = load i64, ptr %11, align 8, !tbaa !8
  store i64 %21, ptr %9, align 8, !tbaa !8
  store i64 0, ptr %12, align 8, !tbaa !8
  br label %22

22:                                               ; preds = %39, %17
  %23 = load i64, ptr %12, align 8, !tbaa !8
  %24 = load i64, ptr %8, align 8, !tbaa !8
  %25 = icmp ult i64 %23, %24
  br i1 %25, label %26, label %42

26:                                               ; preds = %22
  %27 = load ptr, ptr %6, align 8, !tbaa !3
  %28 = load i64, ptr %10, align 8, !tbaa !8
  %29 = getelementptr i64, ptr %27, i64 %28
  %30 = load i64, ptr %29, align 8, !tbaa !8
  %31 = load ptr, ptr %5, align 8, !tbaa !3
  %32 = load i64, ptr %9, align 8, !tbaa !8
  %33 = getelementptr i64, ptr %31, i64 %32
  store i64 %30, ptr %33, align 8, !tbaa !8
  %34 = load i64, ptr %10, align 8, !tbaa !8
  %35 = add i64 %34, 1
  store i64 %35, ptr %10, align 8, !tbaa !8
  %36 = load i64, ptr %7, align 8, !tbaa !8
  %37 = load i64, ptr %9, align 8, !tbaa !8
  %38 = add i64 %37, %36
  store i64 %38, ptr %9, align 8, !tbaa !8
  br label %39

39:                                               ; preds = %26
  %40 = load i64, ptr %12, align 8, !tbaa !8
  %41 = add i64 %40, 1
  store i64 %41, ptr %12, align 8, !tbaa !8
  br label %22, !llvm.loop !10

42:                                               ; preds = %22
  br label %43

43:                                               ; preds = %42
  %44 = load i64, ptr %11, align 8, !tbaa !8
  %45 = add i64 %44, 1
  store i64 %45, ptr %11, align 8, !tbaa !8
  br label %13, !llvm.loop !12

46:                                               ; preds = %13
  call void @llvm.lifetime.end.p0(i64 8, ptr %12) #7
  call void @llvm.lifetime.end.p0(i64 8, ptr %11) #7
  call void @llvm.lifetime.end.p0(i64 8, ptr %10) #7
  call void @llvm.lifetime.end.p0(i64 8, ptr %9) #7
  ret void
}