; Function Attrs: nofree norecurse nosync nounwind memory(argmem: readwrite) uwtable
define hidden void @std_trans(ptr noundef writeonly captures(none) %0, ptr noundef readonly captures(none) %1, i64 noundef %2, i64 noundef %3) local_unnamed_addr #0 {
  %.not = icmp eq i64 %2, 0
  %.not26 = icmp eq i64 %3, 0
  %or.cond = or i1 %.not, %.not26
  br i1 %or.cond, label %._crit_edge25, label %.lr.ph.us

.lr.ph.us:                                        ; preds = %4, %._crit_edge.us
  %.01522.us = phi i64 [ %13, %._crit_edge.us ], [ 0, %4 ]
  %5 = mul i64 %.01522.us, %3
  br label %6

6:                                                ; preds = %.lr.ph.us, %6
  %.021.us = phi i64 [ 0, %.lr.ph.us ], [ %12, %6 ]
  %.01620.us = phi i64 [ %5, %.lr.ph.us ], [ %10, %6 ]
  %.01719.us = phi i64 [ %.01522.us, %.lr.ph.us ], [ %11, %6 ]
  %7 = getelementptr i64, ptr %1, i64 %.01620.us
  %8 = load i64, ptr %7, align 8, !tbaa !3
  %9 = getelementptr i64, ptr %0, i64 %.01719.us
  store i64 %8, ptr %9, align 8, !tbaa !3
  %10 = add i64 %.01620.us, 1
  %11 = add i64 %.01719.us, %2
  %12 = add nuw i64 %.021.us, 1
  %exitcond.not = icmp eq i64 %12, %3
  br i1 %exitcond.not, label %._crit_edge.us, label %6, !llvm.loop !7

._crit_edge.us:                                   ; preds = %6
  %13 = add nuw i64 %.01522.us, 1
  %exitcond28.not = icmp eq i64 %13, %2
  br i1 %exitcond28.not, label %._crit_edge25, label %.lr.ph.us, !llvm.loop !9

._crit_edge25:                                    ; preds = %._crit_edge.us, %4
  ret void
}